target datalayout = "e-m:e-p270:32:32-p271:32:32-p272:64:64-i64:64-i128:128-f80:128-n8:16:32:64-S128"
target triple = "x86_64-pc-linux-gnu"

%"class.llvm::SmallVectorBase" = type { ptr, i32, i32 }
%"class.clang::format::CommaSeparatedList" = type <{ %"class.clang::format::TokenRole", %"class.llvm::SmallVector.62", %"class.llvm::SmallVector.67", %"class.llvm::SmallVector.72", i8, [7 x i8] }>
%"class.clang::format::TokenRole" = type { ptr, ptr }
%"class.llvm::SmallVector.62" = type { %"class.llvm::SmallVectorImpl.63", %"struct.llvm::SmallVectorStorage.66" }
%"class.llvm::SmallVectorImpl.63" = type { %"class.llvm::SmallVectorTemplateBase.64" }
%"class.llvm::SmallVectorTemplateBase.64" = type { %"class.llvm::SmallVectorTemplateCommon.65" }
%"class.llvm::SmallVectorTemplateCommon.65" = type { %"class.llvm::SmallVectorBase" }
%"struct.llvm::SmallVectorStorage.66" = type { [64 x i8] }
%"class.llvm::SmallVector.67" = type { %"class.llvm::SmallVectorImpl.68", %"struct.llvm::SmallVectorStorage.71" }
%"class.llvm::SmallVectorImpl.68" = type { %"class.llvm::SmallVectorTemplateBase.69" }
%"class.llvm::SmallVectorTemplateBase.69" = type { %"class.llvm::SmallVectorTemplateCommon.70" }
%"class.llvm::SmallVectorTemplateCommon.70" = type { %"class.llvm::SmallVectorBase" }
%"struct.llvm::SmallVectorStorage.71" = type { [32 x i8] }
%"class.llvm::SmallVector.72" = type { %"class.llvm::SmallVectorImpl.73", %"struct.llvm::SmallVectorStorage.76" }
%"class.llvm::SmallVectorImpl.73" = type { %"class.llvm::SmallVectorTemplateBase.74" }
%"class.llvm::SmallVectorTemplateBase.74" = type { %"class.llvm::SmallVectorTemplateCommon.75" }
%"class.llvm::SmallVectorTemplateCommon.75" = type { %"class.llvm::SmallVectorBase" }
%"struct.llvm::SmallVectorStorage.76" = type { [256 x i8] }
%"struct.clang::format::CommaSeparatedList::ColumnFormat" = type { i32, i32, i32, %"class.llvm::SmallVector.67" }
%"class.llvm::iterator_range" = type { %"class.std::reverse_iterator", %"class.std::reverse_iterator" }
%"class.std::reverse_iterator" = type { ptr }

; Function Attrs: mustprogress nounwind uwtable
define linkonce_odr hidden noundef ptr @_ZNK4llvm25SmallVectorTemplateCommonIN5clang6format18CommaSeparatedList12ColumnFormatEvE5beginEv(ptr noundef nonnull align 8 dereferenceable(16) %0) #0 comdat align 2 {
  %2 = alloca ptr, align 8
  store ptr %0, ptr %2, align 8
  %3 = load ptr, ptr %2, align 8
  %4 = getelementptr inbounds nuw %"class.llvm::SmallVectorBase", ptr %3, i32 0, i32 0
  %5 = load ptr, ptr %4, align 8
  ret ptr %5
}

; Function Attrs: mustprogress nounwind uwtable
define linkonce_odr hidden void @_ZNSt16reverse_iteratorIPKN5clang6format18CommaSeparatedList12ColumnFormatEEC2ES5_(ptr noundef nonnull align 8 dereferenceable(8) %0, ptr noundef %1) unnamed_addr #0 comdat align 2 {
  %3 = alloca ptr, align 8
  %4 = alloca ptr, align 8
  store ptr %0, ptr %3, align 8
  store ptr %1, ptr %4, align 8
  %5 = load ptr, ptr %3, align 8
  %6 = getelementptr inbounds nuw %"class.std::reverse_iterator", ptr %5, i32 0, i32 0
  %7 = load ptr, ptr %4, align 8
  store ptr %7, ptr %6, align 8
  ret void
}

; Function Attrs: mustprogress nounwind uwtable
define linkonce_odr hidden noundef ptr @_ZNK4llvm25SmallVectorTemplateCommonIN5clang6format18CommaSeparatedList12ColumnFormatEvE3endEv(ptr noundef nonnull align 8 dereferenceable(16) %0) #0 comdat align 2 {
  %2 = alloca ptr, align 8
  store ptr %0, ptr %2, align 8
  %3 = load ptr, ptr %2, align 8
  %4 = call noundef ptr @_ZNK4llvm25SmallVectorTemplateCommonIN5clang6format18CommaSeparatedList12ColumnFormatEvE5beginEv(ptr noundef nonnull align 8 dereferenceable(16) %3)
  %5 = call noundef i64 @_ZNK4llvm15SmallVectorBaseIjE4sizeEv(ptr noundef nonnull align 8 dereferenceable(16) %3)
  %6 = getelementptr inbounds %"struct.clang::format::CommaSeparatedList::ColumnFormat", ptr %4, i64 %5
  ret ptr %6
}

; Function Attrs: mustprogress nounwind uwtable
define linkonce_odr hidden void @_ZNK4llvm25SmallVectorTemplateCommonIN5clang6format18CommaSeparatedList12ColumnFormatEvE4rendEv(ptr dead_on_unwind noalias writable sret(%"class.std::reverse_iterator") align 8 %0, ptr noundef nonnull align 8 dereferenceable(16) %1) #0 comdat align 2 {
  %3 = alloca ptr, align 8
  %4 = alloca ptr, align 8
  store ptr %0, ptr %3, align 8
  store ptr %1, ptr %4, align 8
  %5 = load ptr, ptr %4, align 8
  %6 = call noundef ptr @_ZNK4llvm25SmallVectorTemplateCommonIN5clang6format18CommaSeparatedList12ColumnFormatEvE5beginEv(ptr noundef nonnull align 8 dereferenceable(16) %5)
  call void @_ZNSt16reverse_iteratorIPKN5clang6format18CommaSeparatedList12ColumnFormatEEC2ES5_(ptr noundef nonnull align 8 dereferenceable(8) %0, ptr noundef %6) #3
  ret void
}

; Function Attrs: mustprogress nounwind uwtable
define linkonce_odr hidden void @_ZNK4llvm25SmallVectorTemplateCommonIN5clang6format18CommaSeparatedList12ColumnFormatEvE6rbeginEv(ptr dead_on_unwind noalias writable sret(%"class.std::reverse_iterator") align 8 %0, ptr noundef nonnull align 8 dereferenceable(16) %1) #0 comdat align 2 {
  %3 = alloca ptr, align 8
  %4 = alloca ptr, align 8
  store ptr %0, ptr %3, align 8
  store ptr %1, ptr %4, align 8
  %5 = load ptr, ptr %4, align 8
  %6 = call noundef ptr @_ZNK4llvm25SmallVectorTemplateCommonIN5clang6format18CommaSeparatedList12ColumnFormatEvE3endEv(ptr noundef nonnull align 8 dereferenceable(16) %5)
  call void @_ZNSt16reverse_iteratorIPKN5clang6format18CommaSeparatedList12ColumnFormatEEC2ES5_(ptr noundef nonnull align 8 dereferenceable(8) %0, ptr noundef %6) #3
  ret void
}

; Function Attrs: mustprogress nounwind uwtable
define linkonce_odr void @_ZSt4rendIN4llvm11SmallVectorIN5clang6format18CommaSeparatedList12ColumnFormatELj4EEEEDTcldtfp_4rendEERKT_(ptr dead_on_unwind noalias writable sret(%"class.std::reverse_iterator") align 8 %0, ptr noundef nonnull align 8 dereferenceable(272) %1) #0 comdat {
  %3 = alloca ptr, align 8
  %4 = alloca ptr, align 8
  store ptr %0, ptr %3, align 8
  store ptr %1, ptr %4, align 8
  %5 = load ptr, ptr %4, align 8
  call void @_ZNK4llvm25SmallVectorTemplateCommonIN5clang6format18CommaSeparatedList12ColumnFormatEvE4rendEv(ptr dead_on_unwind writable sret(%"class.std::reverse_iterator") align 8 %0, ptr noundef nonnull align 8 dereferenceable(16) %5)
  ret void
}

; Function Attrs: mustprogress nounwind uwtable
define linkonce_odr void @_ZSt6rbeginIN4llvm11SmallVectorIN5clang6format18CommaSeparatedList12ColumnFormatELj4EEEEDTcldtfp_6rbeginEERKT_(ptr dead_on_unwind noalias writable sret(%"class.std::reverse_iterator") align 8 %0, ptr noundef nonnull align 8 dereferenceable(272) %1) #0 comdat {
  %3 = alloca ptr, align 8
  %4 = alloca ptr, align 8
  store ptr %0, ptr %3, align 8
  store ptr %1, ptr %4, align 8
  %5 = load ptr, ptr %4, align 8
  call void @_ZNK4llvm25SmallVectorTemplateCommonIN5clang6format18CommaSeparatedList12ColumnFormatEvE6rbeginEv(ptr dead_on_unwind writable sret(%"class.std::reverse_iterator") align 8 %0, ptr noundef nonnull align 8 dereferenceable(16) %5)
  ret void
}

; Function Attrs: mustprogress nounwind uwtable
define linkonce_odr hidden noundef ptr @_ZNKSt16reverse_iteratorIPKN5clang6format18CommaSeparatedList12ColumnFormatEE4baseEv(ptr noundef nonnull align 8 dereferenceable(8) %0) #0 comdat align 2 {
  %2 = alloca ptr, align 8
  store ptr %0, ptr %2, align 8
  %3 = load ptr, ptr %2, align 8
  %4 = getelementptr inbounds nuw %"class.std::reverse_iterator", ptr %3, i32 0, i32 0
  %5 = load ptr, ptr %4, align 8
  ret ptr %5
}

; Function Attrs: mustprogress nounwind uwtable
define linkonce_odr hidden void @_ZN4llvm14iterator_rangeISt16reverse_iteratorIPKN5clang6format18CommaSeparatedList12ColumnFormatEEEC2ES8_S8_(ptr noundef nonnull align 8 dereferenceable(16) %0, ptr noundef %1, ptr noundef %2) unnamed_addr #0 comdat align 2 {
  %4 = alloca ptr, align 8
  %5 = alloca ptr, align 8
  %6 = alloca ptr, align 8
  store ptr %0, ptr %4, align 8
  store ptr %1, ptr %5, align 8
  store ptr %2, ptr %6, align 8
  %7 = load ptr, ptr %4, align 8
  %8 = getelementptr inbounds nuw %"class.llvm::iterator_range", ptr %7, i32 0, i32 0
  call void @_ZNSt16reverse_iteratorIPKN5clang6format18CommaSeparatedList12ColumnFormatEEC2ERKS6_(ptr noundef nonnull align 8 dereferenceable(8) %8, ptr noundef nonnull align 8 dereferenceable(8) %1) #3
  %9 = getelementptr inbounds nuw %"class.llvm::iterator_range", ptr %7, i32 0, i32 1
  call void @_ZNSt16reverse_iteratorIPKN5clang6format18CommaSeparatedList12ColumnFormatEEC2ERKS6_(ptr noundef nonnull align 8 dereferenceable(8) %9, ptr noundef nonnull align 8 dereferenceable(8) %2) #3
  ret void
}

; Function Attrs: mustprogress nounwind uwtable
define linkonce_odr hidden void @_ZN4llvm10adl_detail9rend_implIRKNS_11SmallVectorIN5clang6format18CommaSeparatedList12ColumnFormatELj4EEEEEDTcl4rendclsr3stdE7forwardIT_Efp_EEEOSA_(ptr dead_on_unwind noalias writable sret(%"class.std::reverse_iterator") align 8 %0, ptr noundef nonnull align 8 dereferenceable(272) %1) #0 comdat {
  %3 = alloca ptr, align 8
  %4 = alloca ptr, align 8
  store ptr %0, ptr %3, align 8
  store ptr %1, ptr %4, align 8
  %5 = load ptr, ptr %4, align 8
  call void @_ZSt4rendIN4llvm11SmallVectorIN5clang6format18CommaSeparatedList12ColumnFormatELj4EEEEDTcldtfp_4rendEERKT_(ptr dead_on_unwind writable sret(%"class.std::reverse_iterator") align 8 %0, ptr noundef nonnull align 8 dereferenceable(272) %5)
  ret void
}

; Function Attrs: mustprogress nounwind uwtable
define linkonce_odr hidden void @_ZN4llvm10adl_detail11rbegin_implIRKNS_11SmallVectorIN5clang6format18CommaSeparatedList12ColumnFormatELj4EEEEEDTcl6rbeginclsr3stdE7forwardIT_Efp_EEEOSA_(ptr dead_on_unwind noalias writable sret(%"class.std::reverse_iterator") align 8 %0, ptr noundef nonnull align 8 dereferenceable(272) %1) #0 comdat {
  %3 = alloca ptr, align 8
  %4 = alloca ptr, align 8
  store ptr %0, ptr %3, align 8
  store ptr %1, ptr %4, align 8
  %5 = load ptr, ptr %4, align 8
  call void @_ZSt6rbeginIN4llvm11SmallVectorIN5clang6format18CommaSeparatedList12ColumnFormatELj4EEEEDTcldtfp_6rbeginEERKT_(ptr dead_on_unwind writable sret(%"class.std::reverse_iterator") align 8 %0, ptr noundef nonnull align 8 dereferenceable(272) %5)
  ret void
}

; Function Attrs: mustprogress nounwind uwtable
define linkonce_odr noundef zeroext i1 @_ZSteqIPKN5clang6format18CommaSeparatedList12ColumnFormatEEbRKSt16reverse_iteratorIT_ESA_(ptr noundef nonnull align 8 dereferenceable(8) %0, ptr noundef nonnull align 8 dereferenceable(8) %1) #0 comdat {
  %3 = alloca ptr, align 8
  %4 = alloca ptr, align 8
  store ptr %0, ptr %3, align 8
  store ptr %1, ptr %4, align 8
  %5 = load ptr, ptr %3, align 8
  %6 = call noundef ptr @_ZNKSt16reverse_iteratorIPKN5clang6format18CommaSeparatedList12ColumnFormatEE4baseEv(ptr noundef nonnull align 8 dereferenceable(8) %5) #3
  %7 = load ptr, ptr %4, align 8
  %8 = call noundef ptr @_ZNKSt16reverse_iteratorIPKN5clang6format18CommaSeparatedList12ColumnFormatEE4baseEv(ptr noundef nonnull align 8 dereferenceable(8) %7) #3
  %9 = icmp eq ptr %6, %8
  ret i1 %9
}

; Function Attrs: mustprogress nounwind uwtable
define linkonce_odr hidden void @_ZNSt16reverse_iteratorIPKN5clang6format18CommaSeparatedList12ColumnFormatEEC2ERKS6_(ptr noundef nonnull align 8 dereferenceable(8) %0, ptr noundef nonnull align 8 dereferenceable(8) %1) unnamed_addr #0 comdat align 2 {
  %3 = alloca ptr, align 8
  %4 = alloca ptr, align 8
  store ptr %0, ptr %3, align 8
  store ptr %1, ptr %4, align 8
  %5 = load ptr, ptr %3, align 8
  %6 = getelementptr inbounds nuw %"class.std::reverse_iterator", ptr %5, i32 0, i32 0
  %7 = load ptr, ptr %4, align 8
  %8 = getelementptr inbounds nuw %"class.std::reverse_iterator", ptr %7, i32 0, i32 0
  %9 = load ptr, ptr %8, align 8
  store ptr %9, ptr %6, align 8
  ret void
}

; Function Attrs: mustprogress nounwind uwtable
define linkonce_odr void @_ZN4llvm10make_rangeISt16reverse_iteratorIPKN5clang6format18CommaSeparatedList12ColumnFormatEEEENS_14iterator_rangeIT_EESA_SA_(ptr dead_on_unwind noalias writable sret(%"class.llvm::iterator_range") align 8 %0, ptr noundef %1, ptr noundef %2) #0 comdat {
  %4 = alloca ptr, align 8
  %5 = alloca ptr, align 8
  %6 = alloca ptr, align 8
  %7 = alloca %"class.std::reverse_iterator", align 8
  %8 = alloca %"class.std::reverse_iterator", align 8
  store ptr %0, ptr %4, align 8
  store ptr %1, ptr %5, align 8
  store ptr %2, ptr %6, align 8
  call void @_ZNSt16reverse_iteratorIPKN5clang6format18CommaSeparatedList12ColumnFormatEEC2ERKS6_(ptr noundef nonnull align 8 dereferenceable(8) %7, ptr noundef nonnull align 8 dereferenceable(8) %1) #3
  call void @_ZNSt16reverse_iteratorIPKN5clang6format18CommaSeparatedList12ColumnFormatEEC2ERKS6_(ptr noundef nonnull align 8 dereferenceable(8) %8, ptr noundef nonnull align 8 dereferenceable(8) %2) #3
  call void @_ZN4llvm14iterator_rangeISt16reverse_iteratorIPKN5clang6format18CommaSeparatedList12ColumnFormatEEEC2ES8_S8_(ptr noundef nonnull align 8 dereferenceable(16) %0, ptr noundef %7, ptr noundef %8)
  ret void
}

; Function Attrs: mustprogress nounwind uwtable
define linkonce_odr hidden void @_ZN4llvm8adl_rendIRKNS_11SmallVectorIN5clang6format18CommaSeparatedList12ColumnFormatELj4EEEEEDTclsr10adl_detailE9rend_implclsr3stdE7forwardIT_Efp_EEEOS9_(ptr dead_on_unwind noalias writable sret(%"class.std::reverse_iterator") align 8 %0, ptr noundef nonnull align 8 dereferenceable(272) %1) #0 comdat {
  %3 = alloca ptr, align 8
  %4 = alloca ptr, align 8
  store ptr %0, ptr %3, align 8
  store ptr %1, ptr %4, align 8
  %5 = load ptr, ptr %4, align 8
  call void @_ZN4llvm10adl_detail9rend_implIRKNS_11SmallVectorIN5clang6format18CommaSeparatedList12ColumnFormatELj4EEEEEDTcl4rendclsr3stdE7forwardIT_Efp_EEEOSA_(ptr dead_on_unwind writable sret(%"class.std::reverse_iterator") align 8 %0, ptr noundef nonnull align 8 dereferenceable(272) %5)
  ret void
}

; Function Attrs: mustprogress nounwind uwtable
define linkonce_odr hidden void @_ZN4llvm10adl_rbeginIRKNS_11SmallVectorIN5clang6format18CommaSeparatedList12ColumnFormatELj4EEEEEDTclsr10adl_detailE11rbegin_implclsr3stdE7forwardIT_Efp_EEEOS9_(ptr dead_on_unwind noalias writable sret(%"class.std::reverse_iterator") align 8 %0, ptr noundef nonnull align 8 dereferenceable(272) %1) #0 comdat {
  %3 = alloca ptr, align 8
  %4 = alloca ptr, align 8
  store ptr %0, ptr %3, align 8
  store ptr %1, ptr %4, align 8
  %5 = load ptr, ptr %4, align 8
  call void @_ZN4llvm10adl_detail11rbegin_implIRKNS_11SmallVectorIN5clang6format18CommaSeparatedList12ColumnFormatELj4EEEEEDTcl6rbeginclsr3stdE7forwardIT_Efp_EEEOSA_(ptr dead_on_unwind writable sret(%"class.std::reverse_iterator") align 8 %0, ptr noundef nonnull align 8 dereferenceable(272) %5)
  ret void
}

; Function Attrs: mustprogress nounwind uwtable
define linkonce_odr hidden noundef nonnull align 8 dereferenceable(8) ptr @_ZNSt16reverse_iteratorIPKN5clang6format18CommaSeparatedList12ColumnFormatEEppEv(ptr noundef nonnull align 8 dereferenceable(8) %0) #0 comdat align 2 {
  %2 = alloca ptr, align 8
  store ptr %0, ptr %2, align 8
  %3 = load ptr, ptr %2, align 8
  %4 = getelementptr inbounds nuw %"class.std::reverse_iterator", ptr %3, i32 0, i32 0
  %5 = load ptr, ptr %4, align 8
  %6 = getelementptr inbounds %"struct.clang::format::CommaSeparatedList::ColumnFormat", ptr %5, i32 -1
  store ptr %6, ptr %4, align 8
  ret ptr %3
}

; Function Attrs: mustprogress nounwind uwtable
define linkonce_odr hidden noundef nonnull align 8 dereferenceable(64) ptr @_ZNKSt16reverse_iteratorIPKN5clang6format18CommaSeparatedList12ColumnFormatEEdeEv(ptr noundef nonnull align 8 dereferenceable(8) %0) #0 comdat align 2 {
  %2 = alloca ptr, align 8
  %3 = alloca ptr, align 8
  store ptr %0, ptr %2, align 8
  %4 = load ptr, ptr %2, align 8
  %5 = getelementptr inbounds nuw %"class.std::reverse_iterator", ptr %4, i32 0, i32 0
  %6 = load ptr, ptr %5, align 8
  store ptr %6, ptr %3, align 8
  %7 = load ptr, ptr %3, align 8
  %8 = getelementptr inbounds %"struct.clang::format::CommaSeparatedList::ColumnFormat", ptr %7, i32 -1
  store ptr %8, ptr %3, align 8
  ret ptr %8
}

; Function Attrs: mustprogress nounwind uwtable
define linkonce_odr noundef zeroext i1 @_ZStneIPKN5clang6format18CommaSeparatedList12ColumnFormatEEbRKSt16reverse_iteratorIT_ESA_(ptr noundef nonnull align 8 dereferenceable(8) %0, ptr noundef nonnull align 8 dereferenceable(8) %1) #0 comdat {
  %3 = alloca ptr, align 8
  %4 = alloca ptr, align 8
  store ptr %0, ptr %3, align 8
  store ptr %1, ptr %4, align 8
  %5 = load ptr, ptr %3, align 8
  %6 = load ptr, ptr %4, align 8
  %7 = call noundef zeroext i1 @_ZSteqIPKN5clang6format18CommaSeparatedList12ColumnFormatEEbRKSt16reverse_iteratorIT_ESA_(ptr noundef nonnull align 8 dereferenceable(8) %5, ptr noundef nonnull align 8 dereferenceable(8) %6)
  %8 = xor i1 %7, true
  ret i1 %8
}

; Function Attrs: mustprogress nounwind uwtable
define linkonce_odr hidden void @_ZNK4llvm14iterator_rangeISt16reverse_iteratorIPKN5clang6format18CommaSeparatedList12ColumnFormatEEE3endEv(ptr dead_on_unwind noalias writable sret(%"class.std::reverse_iterator") align 8 %0, ptr noundef nonnull align 8 dereferenceable(16) %1) #0 comdat align 2 {
  %3 = alloca ptr, align 8
  %4 = alloca ptr, align 8
  store ptr %0, ptr %3, align 8
  store ptr %1, ptr %4, align 8
  %5 = load ptr, ptr %4, align 8
  %6 = getelementptr inbounds nuw %"class.llvm::iterator_range", ptr %5, i32 0, i32 1
  call void @_ZNSt16reverse_iteratorIPKN5clang6format18CommaSeparatedList12ColumnFormatEEC2ERKS6_(ptr noundef nonnull align 8 dereferenceable(8) %0, ptr noundef nonnull align 8 dereferenceable(8) %6) #3
  ret void
}

; Function Attrs: mustprogress nounwind uwtable
define linkonce_odr hidden void @_ZNK4llvm14iterator_rangeISt16reverse_iteratorIPKN5clang6format18CommaSeparatedList12ColumnFormatEEE5beginEv(ptr dead_on_unwind noalias writable sret(%"class.std::reverse_iterator") align 8 %0, ptr noundef nonnull align 8 dereferenceable(16) %1) #0 comdat align 2 {
  %3 = alloca ptr, align 8
  %4 = alloca ptr, align 8
  store ptr %0, ptr %3, align 8
  store ptr %1, ptr %4, align 8
  %5 = load ptr, ptr %4, align 8
  %6 = getelementptr inbounds nuw %"class.llvm::iterator_range", ptr %5, i32 0, i32 0
  call void @_ZNSt16reverse_iteratorIPKN5clang6format18CommaSeparatedList12ColumnFormatEEC2ERKS6_(ptr noundef nonnull align 8 dereferenceable(8) %0, ptr noundef nonnull align 8 dereferenceable(8) %6) #3
  ret void
}

; Function Attrs: mustprogress nounwind uwtable
define linkonce_odr void @_ZN4llvm7reverseIRKNS_11SmallVectorIN5clang6format18CommaSeparatedList12ColumnFormatELj4EEEEEDaOT_(ptr dead_on_unwind noalias writable sret(%"class.llvm::iterator_range") align 8 %0, ptr noundef nonnull align 8 dereferenceable(272) %1) #0 comdat {
  %3 = alloca ptr, align 8
  %4 = alloca ptr, align 8
  %5 = alloca %"class.std::reverse_iterator", align 8
  %6 = alloca %"class.std::reverse_iterator", align 8
  store ptr %0, ptr %3, align 8
  store ptr %1, ptr %4, align 8
  %7 = load ptr, ptr %4, align 8
  call void @_ZN4llvm10adl_rbeginIRKNS_11SmallVectorIN5clang6format18CommaSeparatedList12ColumnFormatELj4EEEEEDTclsr10adl_detailE11rbegin_implclsr3stdE7forwardIT_Efp_EEEOS9_(ptr dead_on_unwind writable sret(%"class.std::reverse_iterator") align 8 %5, ptr noundef nonnull align 8 dereferenceable(272) %7)
  %8 = load ptr, ptr %4, align 8
  call void @_ZN4llvm8adl_rendIRKNS_11SmallVectorIN5clang6format18CommaSeparatedList12ColumnFormatELj4EEEEEDTclsr10adl_detailE9rend_implclsr3stdE7forwardIT_Efp_EEEOS9_(ptr dead_on_unwind writable sret(%"class.std::reverse_iterator") align 8 %6, ptr noundef nonnull align 8 dereferenceable(272) %8)
  call void @_ZN4llvm10make_rangeISt16reverse_iteratorIPKN5clang6format18CommaSeparatedList12ColumnFormatEEEENS_14iterator_rangeIT_EESA_SA_(ptr dead_on_unwind writable sret(%"class.llvm::iterator_range") align 8 %0, ptr noundef %5, ptr noundef %6)
  ret void
}

; Function Attrs: mustprogress nounwind uwtable
define dso_local noundef ptr @_ZNK5clang6format18CommaSeparatedList15getColumnFormatEj(ptr noundef nonnull align 8 dereferenceable(417) %0, i32 noundef %1) #0 align 2 {
  %3 = alloca ptr, align 8
  %4 = alloca i32, align 4
  %5 = alloca ptr, align 8
  %6 = alloca ptr, align 8
  %7 = alloca %"class.llvm::iterator_range", align 8
  %8 = alloca %"class.std::reverse_iterator", align 8
  %9 = alloca %"class.std::reverse_iterator", align 8
  %10 = alloca ptr, align 8
  store ptr %0, ptr %3, align 8
  store i32 %1, ptr %4, align 4
  %11 = load ptr, ptr %3, align 8
  store ptr null, ptr %5, align 8
  %12 = getelementptr inbounds nuw %"class.clang::format::CommaSeparatedList", ptr %11, i32 0, i32 3
  call void @_ZN4llvm7reverseIRKNS_11SmallVectorIN5clang6format18CommaSeparatedList12ColumnFormatELj4EEEEEDaOT_(ptr dead_on_unwind writable sret(%"class.llvm::iterator_range") align 8 %7, ptr noundef nonnull align 8 dereferenceable(272) %12)
  store ptr %7, ptr %6, align 8
  %13 = load ptr, ptr %6, align 8
  call void @_ZNK4llvm14iterator_rangeISt16reverse_iteratorIPKN5clang6format18CommaSeparatedList12ColumnFormatEEE5beginEv(ptr dead_on_unwind writable sret(%"class.std::reverse_iterator") align 8 %8, ptr noundef nonnull align 8 dereferenceable(16) %13)
  %14 = load ptr, ptr %6, align 8
  call void @_ZNK4llvm14iterator_rangeISt16reverse_iteratorIPKN5clang6format18CommaSeparatedList12ColumnFormatEEE3endEv(ptr dead_on_unwind writable sret(%"class.std::reverse_iterator") align 8 %9, ptr noundef nonnull align 8 dereferenceable(16) %14)
  br label %15

15:                                               ; preds = %44, %2
  %16 = call noundef zeroext i1 @_ZStneIPKN5clang6format18CommaSeparatedList12ColumnFormatEEbRKSt16reverse_iteratorIT_ESA_(ptr noundef nonnull align 8 dereferenceable(8) %8, ptr noundef nonnull align 8 dereferenceable(8) %9)
  br i1 %16, label %17, label %46

17:                                               ; preds = %15
  %18 = call noundef nonnull align 8 dereferenceable(64) ptr @_ZNKSt16reverse_iteratorIPKN5clang6format18CommaSeparatedList12ColumnFormatEEdeEv(ptr noundef nonnull align 8 dereferenceable(8) %8)
  store ptr %18, ptr %10, align 8
  %19 = load ptr, ptr %10, align 8
  %20 = getelementptr inbounds nuw %"struct.clang::format::CommaSeparatedList::ColumnFormat", ptr %19, i32 0, i32 1
  %21 = load i32, ptr %20, align 4
  %22 = load i32, ptr %4, align 4
  %23 = icmp ule i32 %21, %22
  br i1 %23, label %29, label %24

24:                                               ; preds = %17
  %25 = load ptr, ptr %10, align 8
  %26 = getelementptr inbounds nuw %"struct.clang::format::CommaSeparatedList::ColumnFormat", ptr %25, i32 0, i32 0
  %27 = load i32, ptr %26, align 8
  %28 = icmp eq i32 %27, 1
  br i1 %28, label %29, label %43

29:                                               ; preds = %24, %17
  %30 = load ptr, ptr %5, align 8
  %31 = icmp ne ptr %30, null
  br i1 %31, label %32, label %41

32:                                               ; preds = %29
  %33 = load ptr, ptr %10, align 8
  %34 = getelementptr inbounds nuw %"struct.clang::format::CommaSeparatedList::ColumnFormat", ptr %33, i32 0, i32 2
  %35 = load i32, ptr %34, align 8
  %36 = load ptr, ptr %5, align 8
  %37 = getelementptr inbounds nuw %"struct.clang::format::CommaSeparatedList::ColumnFormat", ptr %36, i32 0, i32 2
  %38 = load i32, ptr %37, align 8
  %39 = icmp ugt i32 %35, %38
  br i1 %39, label %40, label %41

40:                                               ; preds = %32
  br label %46

41:                                               ; preds = %32, %29
  %42 = load ptr, ptr %10, align 8
  store ptr %42, ptr %5, align 8
  br label %43

43:                                               ; preds = %41, %24
  br label %44

44:                                               ; preds = %43
  %45 = call noundef nonnull align 8 dereferenceable(8) ptr @_ZNSt16reverse_iteratorIPKN5clang6format18CommaSeparatedList12ColumnFormatEEppEv(ptr noundef nonnull align 8 dereferenceable(8) %8)
  br label %15

46:                                               ; preds = %40, %15
  %47 = load ptr, ptr %5, align 8
  ret ptr %47
}