; Function Attrs: mustprogress nounwind uwtable
define dso_local noundef ptr @_ZNK5clang6format18CommaSeparatedList15getColumnFormatEj(ptr noundef nonnull align 8 dereferenceable(417) %0, i32 noundef %1) local_unnamed_addr #2 align 2 {
  %3 = getelementptr inbounds nuw i8, ptr %0, i64 144
  %4 = load ptr, ptr %3, align 8, !noalias !8
  %5 = tail call noundef i64 @_ZNK4llvm15SmallVectorBaseIjE4sizeEv(ptr noundef nonnull align 8 dereferenceable(16) %3) #17, !noalias !8
  %6 = getelementptr inbounds %"struct.clang::format::CommaSeparatedList::ColumnFormat", ptr %4, i64 %5
  %7 = load ptr, ptr %3, align 8, !noalias !19
  %.not1617 = icmp eq ptr %6, %7
  br i1 %.not1617, label %._crit_edge, label %.lr.ph

.lr.ph:                                           ; preds = %2, %20
  %.019 = phi ptr [ %.1, %20 ], [ null, %2 ]
  %.sroa.012.018 = phi ptr [ %8, %20 ], [ %6, %2 ]
  %8 = getelementptr inbounds i8, ptr %.sroa.012.018, i64 -64
  %9 = getelementptr inbounds i8, ptr %.sroa.012.018, i64 -60
  %10 = load i32, ptr %9, align 4
  %.not = icmp ule i32 %10, %1
  %11 = load i32, ptr %8, align 8
  %12 = icmp eq i32 %11, 1
  %or.cond = select i1 %.not, i1 true, i1 %12
  br i1 %or.cond, label %13, label %20

13:                                               ; preds = %.lr.ph
  %.not10 = icmp eq ptr %.019, null
  br i1 %.not10, label %20, label %14

14:                                               ; preds = %13
  %15 = getelementptr inbounds i8, ptr %.sroa.012.018, i64 -56
  %16 = load i32, ptr %15, align 8
  %17 = getelementptr inbounds nuw i8, ptr %.019, i64 8
  %18 = load i32, ptr %17, align 8
  %19 = icmp ugt i32 %16, %18
  br i1 %19, label %._crit_edge, label %20

20:                                               ; preds = %13, %14, %.lr.ph
  %.1 = phi ptr [ %.019, %.lr.ph ], [ %8, %14 ], [ %8, %13 ]
  %.not16 = icmp eq ptr %8, %7
  br i1 %.not16, label %._crit_edge, label %.lr.ph

._crit_edge:                                      ; preds = %20, %14, %2
  %.0.lcssa = phi ptr [ null, %2 ], [ %.019, %14 ], [ %.1, %20 ]
  ret ptr %.0.lcssa
}